	.file	"float-stack.c"
	.text
.Ltext0:
	.globl	foo
	.type	foo, @function
foo:
.LFB0:
	.file 1 "float-stack.c"
	.loc 1 6 0
	.cfi_startproc
	pushq	%rbp
	.cfi_def_cfa_offset 16
	.cfi_offset 6, -16
	movq	%rsp, %rbp
	.cfi_def_cfa_register 6
	movss	%xmm0, -4(%rbp)
	movss	%xmm1, -8(%rbp)
	movss	%xmm2, -12(%rbp)
	movss	%xmm3, -16(%rbp)
	movss	%xmm4, -20(%rbp)
	movss	%xmm5, -24(%rbp)
	movss	%xmm6, -28(%rbp)
	movss	%xmm7, -32(%rbp)
	.loc 1 7 0
	movl	$0, %eax
	.loc 1 8 0
	popq	%rbp
	.cfi_def_cfa 7, 8
	ret
	.cfi_endproc
.LFE0:
	.size	foo, .-foo
	.globl	_start
	.type	_start, @function
_start:
.LFB1:
	.loc 1 11 0
	.cfi_startproc
	pushq	%rbp
	.cfi_def_cfa_offset 16
	.cfi_offset 6, -16
	movq	%rsp, %rbp
	.cfi_def_cfa_register 6
	subq	$72, %rsp
	.loc 1 14 0
	movl	$17, -8(%rbp)
	.loc 1 16 0
	movl	-8(%rbp), %eax
	movl	%eax, -12(%rbp)
	.loc 1 18 0
	movl	$34, -8(%rbp)
	.loc 1 20 0
	movl	-8(%rbp), %eax
	movl	%eax, -16(%rbp)
	.loc 1 22 0
	movl	$51, -8(%rbp)
	.loc 1 24 0
	movl	-8(%rbp), %eax
	movl	%eax, -20(%rbp)
	.loc 1 26 0
	movl	$68, -8(%rbp)
	.loc 1 28 0
	movl	-8(%rbp), %eax
	movl	%eax, -24(%rbp)
	.loc 1 30 0
	movl	$85, -8(%rbp)
	.loc 1 32 0
	movl	-8(%rbp), %eax
	movl	%eax, -28(%rbp)
	.loc 1 34 0
	movl	$102, -8(%rbp)
	.loc 1 36 0
	movl	-8(%rbp), %eax
	movl	%eax, -32(%rbp)
	.loc 1 38 0
	movl	$119, -8(%rbp)
	.loc 1 40 0
	movl	-8(%rbp), %eax
	movl	%eax, -36(%rbp)
	.loc 1 42 0
	movl	$136, -8(%rbp)
	.loc 1 44 0
	movl	-8(%rbp), %eax
	movl	%eax, -40(%rbp)
	.loc 1 46 0
	movl	$153, -8(%rbp)
	.loc 1 48 0
	movl	-8(%rbp), %eax
	movl	%eax, -44(%rbp)
	.loc 1 50 0
	movl	$170, -8(%rbp)
	.loc 1 52 0
	movl	-8(%rbp), %eax
	movl	%eax, -48(%rbp)
	.loc 1 54 0
	movl	$187, -8(%rbp)
	.loc 1 56 0
	movl	-8(%rbp), %eax
	movl	%eax, -52(%rbp)
	.loc 1 58 0
	movl	$204, -8(%rbp)
	.loc 1 60 0
	movl	-8(%rbp), %eax
	movl	%eax, -56(%rbp)
	.loc 1 62 0
	movss	-56(%rbp), %xmm3
	movss	-52(%rbp), %xmm2
	movss	-48(%rbp), %xmm1
	movss	-44(%rbp), %xmm0
	movss	-40(%rbp), %xmm7
	movss	-36(%rbp), %xmm6
	movss	-32(%rbp), %xmm5
	movss	-28(%rbp), %xmm4
	movss	-24(%rbp), %xmm10
	movss	-20(%rbp), %xmm9
	movss	-16(%rbp), %xmm8
	movl	-12(%rbp), %eax
	leaq	-8(%rsp), %rsp
	movss	%xmm3, (%rsp)
	leaq	-8(%rsp), %rsp
	movss	%xmm2, (%rsp)
	leaq	-8(%rsp), %rsp
	movss	%xmm1, (%rsp)
	leaq	-8(%rsp), %rsp
	movss	%xmm0, (%rsp)
	movaps	%xmm10, %xmm3
	movaps	%xmm9, %xmm2
	movaps	%xmm8, %xmm1
	movl	%eax, -68(%rbp)
	movss	-68(%rbp), %xmm0
	call	foo
	addq	$32, %rsp
	movl	%eax, -4(%rbp)
	.loc 1 63 0
	movl	$0, %eax
	.loc 1 64 0
	leave
	.cfi_def_cfa 7, 8
	ret
	.cfi_endproc
.LFE1:
	.size	_start, .-_start
.Letext0:
	.file 2 "/usr/include/x86_64-linux-gnu/bits/types.h"
	.file 3 "/usr/include/x86_64-linux-gnu/bits/stdint-intn.h"
	.section	.note.GNU-stack,"",@progbits
